target datalayout = "e-m:e-p270:32:32-p271:32:32-p272:64:64-i64:64-i128:128-f80:128-n8:16:32:64-S128"
target triple = "x86_64-pc-linux-gnu"

%struct._packet_info = type { ptr, ptr, i32, i32, %struct.nstime_t, %struct.nstime_t, %struct.nstime_t, i8, ptr, ptr, ptr, ptr, %struct._address, %struct._address, %struct._address, %struct._address, %struct._address, %struct._address, i32, ptr, i8, [3 x i8], %struct.anon, i32, i32, i32, i32, ptr, i8, ptr, ptr, i16, i16, i32, i32, i16, i32, i32, ptr, ptr, ptr, i8, i8, i16, i16, i16, i32, i16, i16, ptr, ptr, ptr, ptr, ptr, i32, i32 }
%struct.nstime_t = type { i64, i32 }
%struct._address = type { i32, i32, ptr, ptr }
%struct.anon = type { i8, [3 x i8] }

@hf_smb_pipe_stringz_param = internal global i32 0, align 4
@.str.671 = private unnamed_addr constant [32 x i8] c"<String goes past end of frame>\00", align 1

; Function Attrs: null_pointer_is_valid sspstrong uwtable
define internal ptr @get_stringz_pointer_value(ptr noundef %0, ptr noundef %1, i32 noundef %2, i32 noundef %3, ptr noundef %4, ptr noundef %5) #0 {
  %7 = alloca ptr, align 8
  %8 = alloca ptr, align 8
  %9 = alloca ptr, align 8
  %10 = alloca i32, align 4
  %11 = alloca i32, align 4
  %12 = alloca ptr, align 8
  %13 = alloca ptr, align 8
  %14 = alloca i32, align 4
  %15 = alloca i32, align 4
  %16 = alloca i32, align 4
  store ptr %0, ptr %8, align 8
  store ptr %1, ptr %9, align 8
  store i32 %2, ptr %10, align 4
  store i32 %3, ptr %11, align 4
  store ptr %4, ptr %12, align 8
  store ptr %5, ptr %13, align 8
  call void @llvm.lifetime.start.p0(i64 4, ptr %14) #7
  call void @llvm.lifetime.start.p0(i64 4, ptr %15) #7
  %17 = load ptr, ptr %9, align 8
  %18 = load i32, ptr %10, align 4
  %19 = call i32 @tvb_get_letohl(ptr noundef %17, i32 noundef %18)
  %20 = and i32 %19, 65535
  %21 = load i32, ptr %11, align 4
  %22 = sub i32 %20, %21
  store i32 %22, ptr %14, align 4
  %23 = load i32, ptr %14, align 4
  %24 = load ptr, ptr %12, align 8
  store i32 %23, ptr %24, align 4
  %25 = load ptr, ptr %9, align 8
  %26 = load i32, ptr %14, align 4
  %27 = call zeroext i1 @tvb_offset_exists(ptr noundef %25, i32 noundef %26)
  br i1 %27, label %28, label %44

28:                                               ; preds = %6
  %29 = load ptr, ptr %9, align 8
  %30 = load i32, ptr %14, align 4
  %31 = call i32 @tvb_strnlen(ptr noundef %29, i32 noundef %30, i32 noundef -1)
  store i32 %31, ptr %15, align 4
  %32 = icmp ne i32 %31, -1
  br i1 %32, label %33, label %44

33:                                               ; preds = %28
  %34 = load i32, ptr %15, align 4
  %35 = add i32 %34, 1
  store i32 %35, ptr %15, align 4
  %36 = load i32, ptr %15, align 4
  %37 = load ptr, ptr %13, align 8
  store i32 %36, ptr %37, align 4
  %38 = load ptr, ptr %8, align 8
  %39 = load ptr, ptr %9, align 8
  %40 = load i32, ptr %14, align 4
  %41 = load i32, ptr %15, align 4
  %42 = sub i32 %41, 1
  %43 = call ptr @tvb_format_text(ptr noundef %38, ptr noundef %39, i32 noundef %40, i32 noundef %42)
  store ptr %43, ptr %7, align 8
  store i32 1, ptr %16, align 4
  br label %45

44:                                               ; preds = %28, %6
  store ptr null, ptr %7, align 8
  store i32 1, ptr %16, align 4
  br label %45

45:                                               ; preds = %44, %33
  call void @llvm.lifetime.end.p0(i64 4, ptr %15) #7
  call void @llvm.lifetime.end.p0(i64 4, ptr %14) #7
  %46 = load ptr, ptr %7, align 8
  ret ptr %46
}

; Function Attrs: null_pointer_is_valid sspstrong uwtable
define internal i32 @add_stringz_pointer_param(ptr noundef %0, i32 noundef %1, i32 noundef %2, ptr noundef %3, ptr noundef %4, i32 noundef %5, i32 noundef %6, ptr noundef %7) #0 {
  %9 = alloca ptr, align 8
  %10 = alloca i32, align 4
  %11 = alloca i32, align 4
  %12 = alloca ptr, align 8
  %13 = alloca ptr, align 8
  %14 = alloca i32, align 4
  %15 = alloca i32, align 4
  %16 = alloca ptr, align 8
  %17 = alloca i32, align 4
  %18 = alloca ptr, align 8
  %19 = alloca i32, align 4
  store ptr %0, ptr %9, align 8
  store i32 %1, ptr %10, align 4
  store i32 %2, ptr %11, align 4
  store ptr %3, ptr %12, align 8
  store ptr %4, ptr %13, align 8
  store i32 %5, ptr %14, align 4
  store i32 %6, ptr %15, align 4
  store ptr %7, ptr %16, align 8
  call void @llvm.lifetime.start.p0(i64 4, ptr %17) #7
  call void @llvm.lifetime.start.p0(i64 8, ptr %18) #7
  call void @llvm.lifetime.start.p0(i64 4, ptr %19) #7
  %20 = load ptr, ptr %12, align 8
  %21 = getelementptr inbounds nuw %struct._packet_info, ptr %20, i32 0, i32 51
  %22 = load ptr, ptr %21, align 8
  %23 = load ptr, ptr %9, align 8
  %24 = load i32, ptr %10, align 4
  %25 = load i32, ptr %14, align 4
  %26 = call ptr @get_stringz_pointer_value(ptr noundef %22, ptr noundef %23, i32 noundef %24, i32 noundef %25, ptr noundef %17, ptr noundef %19)
  store ptr %26, ptr %18, align 8
  %27 = load i32, ptr %10, align 4
  %28 = add i32 %27, 4
  store i32 %28, ptr %10, align 4
  %29 = load ptr, ptr %18, align 8
  %30 = icmp ne ptr %29, null
  br i1 %30, label %31, label %49

31:                                               ; preds = %8
  %32 = load i32, ptr %15, align 4
  %33 = icmp sgt i32 %32, 0
  br i1 %33, label %34, label %41

34:                                               ; preds = %31
  %35 = load ptr, ptr %13, align 8
  %36 = load i32, ptr %15, align 4
  %37 = load ptr, ptr %9, align 8
  %38 = load i32, ptr %17, align 4
  %39 = load i32, ptr %19, align 4
  %40 = call ptr @proto_tree_add_item(ptr noundef %35, i32 noundef %36, ptr noundef %37, i32 noundef %38, i32 noundef %39, i32 noundef 0)
  br label %48

41:                                               ; preds = %31
  %42 = load ptr, ptr %13, align 8
  %43 = load i32, ptr @hf_smb_pipe_stringz_param, align 4
  %44 = load ptr, ptr %9, align 8
  %45 = load i32, ptr %17, align 4
  %46 = load i32, ptr %19, align 4
  %47 = call ptr @proto_tree_add_item(ptr noundef %42, i32 noundef %43, ptr noundef %44, i32 noundef %45, i32 noundef %46, i32 noundef 0)
  br label %48

48:                                               ; preds = %41, %34
  br label %63

49:                                               ; preds = %8
  %50 = load i32, ptr %15, align 4
  %51 = icmp sgt i32 %50, 0
  br i1 %51, label %52, label %57

52:                                               ; preds = %49
  %53 = load ptr, ptr %13, align 8
  %54 = load i32, ptr %15, align 4
  %55 = load ptr, ptr %9, align 8
  %56 = call ptr @proto_tree_add_string(ptr noundef %53, i32 noundef %54, ptr noundef %55, i32 noundef 0, i32 noundef 0, ptr noundef @.str.671)
  br label %62

57:                                               ; preds = %49
  %58 = load ptr, ptr %13, align 8
  %59 = load i32, ptr @hf_smb_pipe_stringz_param, align 4
  %60 = load ptr, ptr %9, align 8
  %61 = call ptr @proto_tree_add_string(ptr noundef %58, i32 noundef %59, ptr noundef %60, i32 noundef 0, i32 noundef 0, ptr noundef @.str.671)
  br label %62

62:                                               ; preds = %57, %52
  br label %63

63:                                               ; preds = %62, %48
  %64 = load i32, ptr %10, align 4
  call void @llvm.lifetime.end.p0(i64 4, ptr %19) #7
  call void @llvm.lifetime.end.p0(i64 8, ptr %18) #7
  call void @llvm.lifetime.end.p0(i64 4, ptr %17) #7
  ret i32 %64
}