; Function Attrs: null_pointer_is_valid sspstrong uwtable
define internal noundef i32 @add_stringz_pointer_param(ptr noundef %0, i32 noundef %1, i32 %2, ptr noundef readonly captures(none) %3, ptr noundef %4, i32 noundef %5, i32 noundef %6, ptr readnone captures(none) %7) #0 {
  %9 = getelementptr inbounds nuw i8, ptr %3, i64 408
  %10 = load ptr, ptr %9, align 8
  %11 = tail call i32 @tvb_get_letohl(ptr noundef %0, i32 noundef %1)
  %12 = and i32 %11, 65535
  %13 = sub i32 %12, %5
  %14 = tail call zeroext i1 @tvb_offset_exists(ptr noundef %0, i32 noundef %13)
  br i1 %14, label %15, label %get_stringz_pointer_value.exit.thread

15:                                               ; preds = %8
  %16 = tail call i32 @tvb_strnlen(ptr noundef %0, i32 noundef %13, i32 noundef -1)
  %.not.i = icmp eq i32 %16, -1
  br i1 %.not.i, label %get_stringz_pointer_value.exit.thread, label %get_stringz_pointer_value.exit

get_stringz_pointer_value.exit:                   ; preds = %15
  %17 = add nuw i32 %16, 1
  %18 = tail call ptr @tvb_format_text(ptr noundef %10, ptr noundef %0, i32 noundef %13, i32 noundef %16)
  %.not = icmp eq ptr %18, null
  br i1 %.not, label %get_stringz_pointer_value.exit.thread, label %19

19:                                               ; preds = %get_stringz_pointer_value.exit
  %20 = icmp sgt i32 %6, 0
  br i1 %20, label %21, label %23

21:                                               ; preds = %19
  %22 = tail call ptr @proto_tree_add_item(ptr noundef %4, i32 noundef %6, ptr noundef %0, i32 noundef %13, i32 noundef %17, i32 noundef 0)
  br label %32

23:                                               ; preds = %19
  %24 = load i32, ptr @hf_smb_pipe_stringz_param, align 4
  %25 = tail call ptr @proto_tree_add_item(ptr noundef %4, i32 noundef %24, ptr noundef %0, i32 noundef %13, i32 noundef %17, i32 noundef 0)
  br label %32

get_stringz_pointer_value.exit.thread:            ; preds = %8, %15, %get_stringz_pointer_value.exit
  %26 = icmp sgt i32 %6, 0
  br i1 %26, label %27, label %29

27:                                               ; preds = %get_stringz_pointer_value.exit.thread
  %28 = tail call ptr @proto_tree_add_string(ptr noundef %4, i32 noundef %6, ptr noundef %0, i32 noundef 0, i32 noundef 0, ptr noundef nonnull @.str.671)
  br label %32

29:                                               ; preds = %get_stringz_pointer_value.exit.thread
  %30 = load i32, ptr @hf_smb_pipe_stringz_param, align 4
  %31 = tail call ptr @proto_tree_add_string(ptr noundef %4, i32 noundef %30, ptr noundef %0, i32 noundef 0, i32 noundef 0, ptr noundef nonnull @.str.671)
  br label %32

32:                                               ; preds = %27, %29, %21, %23
  %33 = add i32 %1, 4
  ret i32 %33
}